target datalayout = "e-m:e-p270:32:32-p271:32:32-p272:64:64-i64:64-i128:128-f80:128-n8:16:32:64-S128"
target triple = "x86_64-pc-linux-gnu"

%struct.buf_t = type { i32, ptr, i32, i32, i8, i8 }

@.str.13 = private unnamed_addr constant [4 x i8] c"%Lf\00", align 1
@.str.15 = private unnamed_addr constant [49 x i8] c"%s: Buffer to be unpacked is too large (%u > %u)\00", align 1
@__func__.unpackmem_ptr = private unnamed_addr constant [14 x i8] c"unpackmem_ptr\00", align 1

; Function Attrs: inlinehint nounwind uwtable
define internal i32 @__bswap_32(i32 noundef %0) #8 {
  %2 = alloca i32, align 4
  store i32 %0, ptr %2, align 4
  %3 = load i32, ptr %2, align 4
  %4 = and i32 %3, -16777216
  %5 = lshr i32 %4, 24
  %6 = load i32, ptr %2, align 4
  %7 = and i32 %6, 16711680
  %8 = lshr i32 %7, 8
  %9 = or i32 %5, %8
  %10 = load i32, ptr %2, align 4
  %11 = and i32 %10, 65280
  %12 = shl i32 %11, 8
  %13 = or i32 %9, %12
  %14 = load i32, ptr %2, align 4
  %15 = and i32 %14, 255
  %16 = shl i32 %15, 24
  %17 = or i32 %13, %16
  ret i32 %17
}

; Function Attrs: nounwind uwtable
define dso_local i32 @unpack32(ptr noundef %0, ptr noundef %1) #0 {
  %3 = alloca i32, align 4
  %4 = alloca ptr, align 8
  %5 = alloca ptr, align 8
  %6 = alloca i32, align 4
  %7 = alloca i32, align 4
  store ptr %0, ptr %4, align 8
  store ptr %1, ptr %5, align 8
  call void @llvm.lifetime.start.p0(i64 4, ptr %6) #9
  %8 = load ptr, ptr %5, align 8
  %9 = getelementptr inbounds nuw %struct.buf_t, ptr %8, i32 0, i32 2
  %10 = load i32, ptr %9, align 8
  %11 = load ptr, ptr %5, align 8
  %12 = getelementptr inbounds nuw %struct.buf_t, ptr %11, i32 0, i32 3
  %13 = load i32, ptr %12, align 4
  %14 = sub i32 %10, %13
  %15 = zext i32 %14 to i64
  %16 = icmp ult i64 %15, 4
  br i1 %16, label %17, label %18

17:                                               ; preds = %2
  store i32 -1, ptr %3, align 4
  store i32 1, ptr %7, align 4
  br label %36

18:                                               ; preds = %2
  %19 = load ptr, ptr %5, align 8
  %20 = getelementptr inbounds nuw %struct.buf_t, ptr %19, i32 0, i32 1
  %21 = load ptr, ptr %20, align 8
  %22 = load ptr, ptr %5, align 8
  %23 = getelementptr inbounds nuw %struct.buf_t, ptr %22, i32 0, i32 3
  %24 = load i32, ptr %23, align 4
  %25 = zext i32 %24 to i64
  %26 = getelementptr inbounds nuw i8, ptr %21, i64 %25
  call void @llvm.memcpy.p0.p0.i64(ptr align 4 %6, ptr align 1 %26, i64 4, i1 false)
  %27 = load i32, ptr %6, align 4
  %28 = call i32 @__bswap_32(i32 noundef %27)
  %29 = load ptr, ptr %4, align 8
  store i32 %28, ptr %29, align 4
  %30 = load ptr, ptr %5, align 8
  %31 = getelementptr inbounds nuw %struct.buf_t, ptr %30, i32 0, i32 3
  %32 = load i32, ptr %31, align 4
  %33 = zext i32 %32 to i64
  %34 = add i64 %33, 4
  %35 = trunc i64 %34 to i32
  store i32 %35, ptr %31, align 4
  store i32 0, ptr %3, align 4
  store i32 1, ptr %7, align 4
  br label %36

36:                                               ; preds = %18, %17
  call void @llvm.lifetime.end.p0(i64 4, ptr %6) #9
  %37 = load i32, ptr %3, align 4
  ret i32 %37
}

; Function Attrs: nounwind uwtable
define dso_local i32 @unpackmem_ptr(ptr noundef %0, ptr noundef %1, ptr noundef %2) #0 {
  %4 = alloca i32, align 4
  %5 = alloca ptr, align 8
  %6 = alloca ptr, align 8
  %7 = alloca ptr, align 8
  store ptr %0, ptr %5, align 8
  store ptr %1, ptr %6, align 8
  store ptr %2, ptr %7, align 8
  %8 = load ptr, ptr %5, align 8
  store ptr null, ptr %8, align 8
  br label %9

9:                                                ; preds = %3
  %10 = load ptr, ptr %6, align 8
  %11 = load ptr, ptr %7, align 8
  %12 = call i32 @unpack32(ptr noundef %10, ptr noundef %11)
  %13 = icmp ne i32 %12, 0
  br i1 %13, label %14, label %15

14:                                               ; preds = %9
  br label %57

15:                                               ; preds = %9
  br label %16

16:                                               ; preds = %15
  %17 = load ptr, ptr %6, align 8
  %18 = load i32, ptr %17, align 4
  %19 = icmp ne i32 %18, 0
  br i1 %19, label %21, label %20

20:                                               ; preds = %16
  store i32 0, ptr %4, align 4
  br label %59

21:                                               ; preds = %16
  %22 = load ptr, ptr %6, align 8
  %23 = load i32, ptr %22, align 4
  %24 = icmp ugt i32 %23, 1073741824
  br i1 %24, label %25, label %29

25:                                               ; preds = %21
  %26 = load ptr, ptr %6, align 8
  %27 = load i32, ptr %26, align 4
  %28 = call i32 (ptr, ...) @error(ptr noundef @.str.15, ptr noundef @__func__.unpackmem_ptr, i32 noundef %27, i32 noundef 1073741824)
  br label %57

29:                                               ; preds = %21
  %30 = load ptr, ptr %7, align 8
  %31 = getelementptr inbounds nuw %struct.buf_t, ptr %30, i32 0, i32 2
  %32 = load i32, ptr %31, align 8
  %33 = load ptr, ptr %7, align 8
  %34 = getelementptr inbounds nuw %struct.buf_t, ptr %33, i32 0, i32 3
  %35 = load i32, ptr %34, align 4
  %36 = sub i32 %32, %35
  %37 = load ptr, ptr %6, align 8
  %38 = load i32, ptr %37, align 4
  %39 = icmp ult i32 %36, %38
  br i1 %39, label %40, label %41

40:                                               ; preds = %29
  br label %57

41:                                               ; preds = %29
  %42 = load ptr, ptr %7, align 8
  %43 = getelementptr inbounds nuw %struct.buf_t, ptr %42, i32 0, i32 1
  %44 = load ptr, ptr %43, align 8
  %45 = load ptr, ptr %7, align 8
  %46 = getelementptr inbounds nuw %struct.buf_t, ptr %45, i32 0, i32 3
  %47 = load i32, ptr %46, align 4
  %48 = zext i32 %47 to i64
  %49 = getelementptr inbounds nuw i8, ptr %44, i64 %48
  %50 = load ptr, ptr %5, align 8
  store ptr %49, ptr %50, align 8
  %51 = load ptr, ptr %6, align 8
  %52 = load i32, ptr %51, align 4
  %53 = load ptr, ptr %7, align 8
  %54 = getelementptr inbounds nuw %struct.buf_t, ptr %53, i32 0, i32 3
  %55 = load i32, ptr %54, align 4
  %56 = add i32 %55, %52
  store i32 %56, ptr %54, align 4
  store i32 0, ptr %4, align 4
  br label %59

57:                                               ; preds = %40, %25, %14
  %58 = load ptr, ptr %6, align 8
  store i32 0, ptr %58, align 4
  store i32 -1, ptr %4, align 4
  br label %59

59:                                               ; preds = %57, %41, %20
  %60 = load i32, ptr %4, align 4
  ret i32 %60
}

; Function Attrs: nounwind uwtable
define dso_local i32 @unpacklongdouble(ptr noundef %0, ptr noundef %1) #0 {
  %3 = alloca i32, align 4
  %4 = alloca ptr, align 8
  %5 = alloca ptr, align 8
  %6 = alloca x86_fp80, align 16
  %7 = alloca ptr, align 8
  %8 = alloca i32, align 4
  %9 = alloca i32, align 4
  %10 = alloca i32, align 4
  store ptr %0, ptr %4, align 8
  store ptr %1, ptr %5, align 8
  call void @llvm.lifetime.start.p0(i64 16, ptr %6) #9
  call void @llvm.lifetime.start.p0(i64 8, ptr %7) #9
  store ptr null, ptr %7, align 8
  call void @llvm.lifetime.start.p0(i64 4, ptr %8) #9
  store i32 0, ptr %8, align 4
  call void @llvm.lifetime.start.p0(i64 4, ptr %9) #9
  %11 = load ptr, ptr %5, align 8
  %12 = call i32 @unpackmem_ptr(ptr noundef %7, ptr noundef %8, ptr noundef %11)
  store i32 %12, ptr %9, align 4
  %13 = load i32, ptr %9, align 4
  %14 = icmp ne i32 %13, 0
  br i1 %14, label %15, label %17

15:                                               ; preds = %2
  %16 = load i32, ptr %9, align 4
  store i32 %16, ptr %3, align 4
  store i32 1, ptr %10, align 4
  br label %29

17:                                               ; preds = %2
  %18 = load ptr, ptr %7, align 8
  %19 = call i32 (ptr, ptr, ...) @__isoc99_sscanf(ptr noundef %18, ptr noundef @.str.13, ptr noundef %6) #9
  %20 = icmp ne i32 %19, 1
  br i1 %20, label %21, label %22

21:                                               ; preds = %17
  store i32 -1, ptr %3, align 4
  store i32 1, ptr %10, align 4
  br label %29

22:                                               ; preds = %17
  %23 = load x86_fp80, ptr %6, align 16
  %24 = call i1 @llvm.is.fpclass.f80(x86_fp80 %23, i32 3)
  br i1 %24, label %25, label %26

25:                                               ; preds = %22
  store x86_fp80 0xK00000000000000000000, ptr %6, align 16
  br label %26

26:                                               ; preds = %25, %22
  %27 = load x86_fp80, ptr %6, align 16
  %28 = load ptr, ptr %4, align 8
  store x86_fp80 %27, ptr %28, align 16
  store i32 0, ptr %3, align 4
  store i32 1, ptr %10, align 4
  br label %29

29:                                               ; preds = %26, %21, %15
  call void @llvm.lifetime.end.p0(i64 4, ptr %9) #9
  call void @llvm.lifetime.end.p0(i64 4, ptr %8) #9
  call void @llvm.lifetime.end.p0(i64 8, ptr %7) #9
  call void @llvm.lifetime.end.p0(i64 16, ptr %6) #9
  %30 = load i32, ptr %3, align 4
  ret i32 %30
}