; Function Attrs: nounwind uwtable
define dso_local range(i32 -1, 1) i32 @unpacklongdouble(ptr noundef writeonly captures(none) %0, ptr noundef captures(none) %1) #0 {
  %3 = alloca x86_fp80, align 16
  call void @llvm.lifetime.start.p0(i64 16, ptr nonnull %3) #14
  %4 = getelementptr inbounds nuw i8, ptr %1, i64 16
  %5 = load i32, ptr %4, align 8
  %6 = getelementptr inbounds nuw i8, ptr %1, i64 20
  %7 = load i32, ptr %6, align 4
  %8 = sub i32 %5, %7
  %9 = icmp ult i32 %8, 4
  br i1 %9, label %unpackmem_ptr.exit.thread, label %10

10:                                               ; preds = %2
  %11 = getelementptr inbounds nuw i8, ptr %1, i64 8
  %12 = load ptr, ptr %11, align 8
  %13 = zext i32 %7 to i64
  %14 = getelementptr inbounds nuw i8, ptr %12, i64 %13
  %.0.copyload.i.i = load i32, ptr %14, align 1
  %15 = tail call noundef i32 @llvm.bswap.i32(i32 %.0.copyload.i.i)
  %16 = add i32 %7, 4
  store i32 %16, ptr %6, align 4
  %.not16.i = icmp eq i32 %.0.copyload.i.i, 0
  br i1 %.not16.i, label %unpackmem_ptr.exit, label %17

17:                                               ; preds = %10
  %18 = icmp ugt i32 %15, 1073741824
  br i1 %18, label %19, label %21

19:                                               ; preds = %17
  %20 = tail call i32 (ptr, ...) @error(ptr noundef nonnull @.str.15, ptr noundef nonnull @__func__.unpackmem_ptr, i32 noundef %15, i32 noundef 1073741824) #14
  br label %unpackmem_ptr.exit.thread

21:                                               ; preds = %17
  %22 = sub i32 %5, %16
  %23 = icmp ult i32 %22, %15
  br i1 %23, label %unpackmem_ptr.exit.thread, label %24

24:                                               ; preds = %21
  %25 = zext i32 %16 to i64
  %26 = getelementptr inbounds nuw i8, ptr %12, i64 %25
  %27 = add i32 %15, %16
  store i32 %27, ptr %6, align 4
  br label %unpackmem_ptr.exit

unpackmem_ptr.exit:                               ; preds = %24, %10
  %.07 = phi ptr [ null, %10 ], [ %26, %24 ]
  %28 = call i32 (ptr, ptr, ...) @__isoc99_sscanf(ptr noundef %.07, ptr noundef nonnull @.str.13, ptr noundef nonnull %3) #14
  %.not5 = icmp eq i32 %28, 1
  br i1 %.not5, label %29, label %unpackmem_ptr.exit.thread

29:                                               ; preds = %unpackmem_ptr.exit
  %30 = load x86_fp80, ptr %3, align 16
  %.inv = fcmp ord x86_fp80 %30, 0xK00000000000000000000
  %31 = select i1 %.inv, x86_fp80 %30, x86_fp80 0xK00000000000000000000
  store x86_fp80 %31, ptr %0, align 16
  br label %unpackmem_ptr.exit.thread

unpackmem_ptr.exit.thread:                        ; preds = %2, %19, %21, %unpackmem_ptr.exit, %29
  %.0 = phi i32 [ 0, %29 ], [ -1, %unpackmem_ptr.exit ], [ -1, %21 ], [ -1, %19 ], [ -1, %2 ]
  call void @llvm.lifetime.end.p0(i64 16, ptr nonnull %3) #14
  ret i32 %.0
}